target datalayout = "e-m:e-p270:32:32-p271:32:32-p272:64:64-i64:64-i128:128-f80:128-n8:16:32:64-S128"
target triple = "x86_64-pc-linux-gnu"

%struct.rlc_channel = type { i32, i16, i16, i8, i16, i8, i8, i32, i32 }
%struct.rlc_seqlist = type { %struct.rlc_channel, ptr, i32 }

@.str.161 = private unnamed_addr constant [25 x i8] c"Failed to assign channel\00", align 1
@endpoints = internal global ptr null, align 8

; Function Attrs: null_pointer_is_valid sspstrong uwtable
define internal ptr @rlc_channel_create(i32 noundef %0, ptr noundef %1, ptr noundef %2) #0 {
  %4 = alloca i32, align 4
  %5 = alloca ptr, align 8
  %6 = alloca ptr, align 8
  %7 = alloca ptr, align 8
  %8 = alloca i32, align 4
  %9 = alloca i64, align 8
  %10 = alloca i64, align 8
  %11 = alloca ptr, align 8
  %12 = alloca ptr, align 8
  store i32 %0, ptr %4, align 4
  store ptr %1, ptr %5, align 8
  store ptr %2, ptr %6, align 8
  call void @llvm.lifetime.start.p0(i64 8, ptr %7) #18
  call void @llvm.lifetime.start.p0(i64 4, ptr %8) #18
  call void @llvm.lifetime.start.p0(i64 8, ptr %9) #18
  store i64 1, ptr %9, align 8
  call void @llvm.lifetime.start.p0(i64 8, ptr %10) #18
  store i64 24, ptr %10, align 8
  call void @llvm.lifetime.start.p0(i64 8, ptr %11) #18
  %13 = load i64, ptr %10, align 8
  %14 = icmp eq i64 %13, 1
  br i1 %14, label %15, label %18

15:                                               ; preds = %3
  %16 = load i64, ptr %9, align 8
  %17 = call noalias ptr @g_malloc0(i64 noundef %16) #20
  store ptr %17, ptr %11, align 8
  br label %39

18:                                               ; preds = %3
  %19 = load i64, ptr %9, align 8
  %20 = call i1 @llvm.is.constant.i64(i64 %19)
  br i1 %20, label %21, label %34

21:                                               ; preds = %18
  %22 = load i64, ptr %10, align 8
  %23 = icmp eq i64 %22, 0
  br i1 %23, label %29, label %24

24:                                               ; preds = %21
  %25 = load i64, ptr %9, align 8
  %26 = load i64, ptr %10, align 8
  %27 = udiv i64 -1, %26
  %28 = icmp ule i64 %25, %27
  br i1 %28, label %29, label %34

29:                                               ; preds = %24, %21
  %30 = load i64, ptr %9, align 8
  %31 = load i64, ptr %10, align 8
  %32 = mul i64 %30, %31
  %33 = call noalias ptr @g_malloc0(i64 noundef %32) #20
  store ptr %33, ptr %11, align 8
  br label %38

34:                                               ; preds = %24, %18
  %35 = load i64, ptr %9, align 8
  %36 = load i64, ptr %10, align 8
  %37 = call noalias ptr @g_malloc0_n(i64 noundef %35, i64 noundef %36) #21
  store ptr %37, ptr %11, align 8
  br label %38

38:                                               ; preds = %34, %29
  br label %39

39:                                               ; preds = %38, %15
  %40 = load ptr, ptr %11, align 8
  store ptr %40, ptr %12, align 8
  call void @llvm.lifetime.end.p0(i64 8, ptr %11) #18
  call void @llvm.lifetime.end.p0(i64 8, ptr %10) #18
  call void @llvm.lifetime.end.p0(i64 8, ptr %9) #18
  %41 = load ptr, ptr %12, align 8
  store ptr %41, ptr %7, align 8
  %42 = load ptr, ptr %7, align 8
  %43 = load i32, ptr %4, align 4
  %44 = load ptr, ptr %5, align 8
  %45 = load ptr, ptr %6, align 8
  %46 = call i32 @rlc_channel_assign(ptr noundef %42, i32 noundef %43, ptr noundef %44, ptr noundef %45)
  store i32 %46, ptr %8, align 4
  %47 = load i32, ptr %8, align 4
  %48 = icmp ne i32 %47, 0
  br i1 %48, label %49, label %51

49:                                               ; preds = %39
  %50 = load ptr, ptr %7, align 8
  call void @g_free(ptr noundef %50)
  store ptr null, ptr %7, align 8
  call void (ptr, ...) @proto_report_dissector_bug(ptr noundef @.str.161) #22
  unreachable

51:                                               ; preds = %39
  %52 = load ptr, ptr %7, align 8
  call void @llvm.lifetime.end.p0(i64 4, ptr %8) #18
  call void @llvm.lifetime.end.p0(i64 8, ptr %7) #18
  ret ptr %52
}

; Function Attrs: null_pointer_is_valid sspstrong uwtable
define internal ptr @get_endlist(ptr noundef %0, ptr noundef %1, ptr noundef %2) #0 {
  %4 = alloca ptr, align 8
  %5 = alloca ptr, align 8
  %6 = alloca ptr, align 8
  %7 = alloca ptr, align 8
  %8 = alloca ptr, align 8
  %9 = alloca ptr, align 8
  %10 = alloca ptr, align 8
  %11 = alloca i32, align 4
  store ptr %0, ptr %5, align 8
  store ptr %1, ptr %6, align 8
  store ptr %2, ptr %7, align 8
  call void @llvm.lifetime.start.p0(i64 8, ptr %8) #18
  store ptr null, ptr %8, align 8
  call void @llvm.lifetime.start.p0(i64 8, ptr %9) #18
  store ptr null, ptr %9, align 8
  %12 = load ptr, ptr @endpoints, align 8
  %13 = load ptr, ptr %6, align 8
  %14 = call i32 @g_hash_table_lookup_extended(ptr noundef %12, ptr noundef %13, ptr noundef null, ptr noundef %8)
  %15 = icmp ne i32 %14, 0
  br i1 %15, label %16, label %18

16:                                               ; preds = %3
  %17 = load ptr, ptr %8, align 8
  store ptr %17, ptr %9, align 8
  br label %46

18:                                               ; preds = %3
  %19 = load ptr, ptr %5, align 8
  %20 = icmp ne ptr %19, null
  br i1 %20, label %21, label %44

21:                                               ; preds = %18
  call void @llvm.lifetime.start.p0(i64 8, ptr %10) #18
  %22 = call ptr @wmem_file_scope()
  %23 = call noalias ptr @wmem_alloc(ptr noundef %22, i64 noundef 40) #19
  store ptr %23, ptr %9, align 8
  %24 = load ptr, ptr %6, align 8
  %25 = getelementptr inbounds nuw %struct.rlc_channel, ptr %24, i32 0, i32 8
  %26 = load i32, ptr %25, align 4
  %27 = load ptr, ptr %5, align 8
  %28 = load ptr, ptr %7, align 8
  %29 = call ptr @rlc_channel_create(i32 noundef %26, ptr noundef %27, ptr noundef %28)
  store ptr %29, ptr %10, align 8
  %30 = load ptr, ptr %9, align 8
  %31 = getelementptr inbounds nuw %struct.rlc_seqlist, ptr %30, i32 0, i32 2
  store i32 0, ptr %31, align 8
  %32 = load ptr, ptr %9, align 8
  %33 = getelementptr inbounds nuw %struct.rlc_seqlist, ptr %32, i32 0, i32 1
  store ptr null, ptr %33, align 8
  %34 = load ptr, ptr %9, align 8
  %35 = getelementptr inbounds nuw %struct.rlc_seqlist, ptr %34, i32 0, i32 1
  %36 = load ptr, ptr %35, align 8
  %37 = call ptr @g_list_prepend(ptr noundef %36, ptr noundef inttoptr (i64 -1 to ptr))
  %38 = load ptr, ptr %9, align 8
  %39 = getelementptr inbounds nuw %struct.rlc_seqlist, ptr %38, i32 0, i32 1
  store ptr %37, ptr %39, align 8
  %40 = load ptr, ptr @endpoints, align 8
  %41 = load ptr, ptr %10, align 8
  %42 = load ptr, ptr %9, align 8
  %43 = call i32 @g_hash_table_insert(ptr noundef %40, ptr noundef %41, ptr noundef %42)
  call void @llvm.lifetime.end.p0(i64 8, ptr %10) #18
  br label %45

44:                                               ; preds = %18
  store ptr null, ptr %4, align 8
  store i32 1, ptr %11, align 4
  br label %48

45:                                               ; preds = %21
  br label %46

46:                                               ; preds = %45, %16
  %47 = load ptr, ptr %9, align 8
  store ptr %47, ptr %4, align 8
  store i32 1, ptr %11, align 4
  br label %48

48:                                               ; preds = %46, %44
  call void @llvm.lifetime.end.p0(i64 8, ptr %9) #18
  call void @llvm.lifetime.end.p0(i64 8, ptr %8) #18
  %49 = load ptr, ptr %4, align 8
  ret ptr %49
}