; Function Attrs: null_pointer_is_valid sspstrong uwtable
define internal fastcc ptr @get_endlist(ptr noundef %0, ptr noundef %1, ptr noundef captures(address_is_null) %2) unnamed_addr #0 {
  %4 = alloca ptr, align 8
  call void @llvm.lifetime.start.p0(i64 8, ptr nonnull %4) #16
  store ptr null, ptr %4, align 8
  %5 = load ptr, ptr @endpoints, align 8
  %6 = call i32 @g_hash_table_lookup_extended(ptr noundef %5, ptr noundef %1, ptr noundef null, ptr noundef nonnull %4)
  %.not = icmp eq i32 %6, 0
  br i1 %.not, label %9, label %7

7:                                                ; preds = %3
  %8 = load ptr, ptr %4, align 8
  br label %23

9:                                                ; preds = %3
  %.not15 = icmp eq ptr %0, null
  br i1 %.not15, label %23, label %10

10:                                               ; preds = %9
  %11 = call ptr @wmem_file_scope()
  %12 = call noalias dereferenceable_or_null(40) ptr @wmem_alloc(ptr noundef %11, i64 noundef 40) #17
  %13 = getelementptr inbounds nuw i8, ptr %1, i64 20
  %14 = load i32, ptr %13, align 4
  %15 = call noalias dereferenceable_or_null(24) ptr @g_malloc0(i64 noundef 24) #18
  %16 = call fastcc i32 @rlc_channel_assign(ptr noundef %15, i32 noundef %14, ptr noundef nonnull %0, ptr noundef %2)
  %.not.i = icmp eq i32 %16, 0
  br i1 %.not.i, label %rlc_channel_create.exit, label %17

17:                                               ; preds = %10
  call void @g_free(ptr noundef %15)
  call void (ptr, ...) @proto_report_dissector_bug(ptr noundef nonnull @.str.161) #19
  unreachable

rlc_channel_create.exit:                          ; preds = %10
  %18 = getelementptr inbounds nuw i8, ptr %12, i64 32
  store i32 0, ptr %18, align 8
  %19 = getelementptr inbounds nuw i8, ptr %12, i64 24
  store ptr null, ptr %19, align 8
  %20 = call ptr @g_list_prepend(ptr noundef null, ptr noundef nonnull inttoptr (i64 -1 to ptr))
  store ptr %20, ptr %19, align 8
  %21 = load ptr, ptr @endpoints, align 8
  %22 = call i32 @g_hash_table_insert(ptr noundef %21, ptr noundef %15, ptr noundef %12)
  br label %23

23:                                               ; preds = %7, %rlc_channel_create.exit, %9
  %.0 = phi ptr [ null, %9 ], [ %8, %7 ], [ %12, %rlc_channel_create.exit ]
  call void @llvm.lifetime.end.p0(i64 8, ptr nonnull %4) #16
  ret ptr %.0
}